; Function Attrs: nounwind uwtable
define internal void @cairogen_bezier(ptr noundef readonly captures(none) %0, ptr noundef %1, i64 noundef %2, i32 noundef %3) #0 {
  %5 = getelementptr inbounds nuw i8, ptr %0, i64 32
  %6 = load ptr, ptr %5, align 8, !tbaa !56
  %7 = getelementptr inbounds nuw i8, ptr %0, i64 256
  %8 = load ptr, ptr %7, align 8, !tbaa !32
  %9 = getelementptr inbounds nuw i8, ptr %6, i64 168
  %10 = load i32, ptr %9, align 8, !tbaa !72
  switch i32 %10, label %13 [
    i32 1, label %11
    i32 2, label %12
  ]

11:                                               ; preds = %4
  tail call void @cairo_set_dash(ptr noundef %8, ptr noundef nonnull @dashed, i32 noundef 1, double noundef 0.000000e+00) #20
  br label %cairogen_set_penstyle.exit

12:                                               ; preds = %4
  tail call void @cairo_set_dash(ptr noundef %8, ptr noundef nonnull @dotted, i32 noundef 2, double noundef 0.000000e+00) #20
  br label %cairogen_set_penstyle.exit

13:                                               ; preds = %4
  tail call void @cairo_set_dash(ptr noundef %8, ptr noundef nonnull @dashed, i32 noundef 0, double noundef 0.000000e+00) #20
  br label %cairogen_set_penstyle.exit

cairogen_set_penstyle.exit:                       ; preds = %11, %12, %13
  %14 = getelementptr inbounds nuw i8, ptr %6, i64 176
  %15 = load double, ptr %14, align 8, !tbaa !73
  tail call void @cairo_set_line_width(ptr noundef %8, double noundef %15) #20
  %16 = load double, ptr %1, align 8, !tbaa !62
  %17 = getelementptr inbounds nuw i8, ptr %1, i64 8
  %18 = load double, ptr %17, align 8, !tbaa !64
  %19 = fneg double %18
  tail call void @cairo_move_to(ptr noundef %8, double noundef %16, double noundef %19) #20
  %20 = icmp ugt i64 %2, 1
  br i1 %20, label %.lr.ph, label %._crit_edge

._crit_edge:                                      ; preds = %.lr.ph, %cairogen_set_penstyle.exit
  %21 = and i32 %3, -2
  %or.cond = icmp eq i32 %21, 2
  br i1 %or.cond, label %39, label %40

.lr.ph:                                           ; preds = %cairogen_set_penstyle.exit, %.lr.ph
  %.039 = phi i64 [ %37, %.lr.ph ], [ 1, %cairogen_set_penstyle.exit ]
  %22 = getelementptr inbounds nuw %struct.pointf_s, ptr %1, i64 %.039
  %23 = load double, ptr %22, align 8, !tbaa !62
  %24 = getelementptr inbounds nuw i8, ptr %22, i64 8
  %25 = load double, ptr %24, align 8, !tbaa !64
  %26 = fneg double %25
  %27 = getelementptr i8, ptr %22, i64 16
  %28 = load double, ptr %27, align 8, !tbaa !62
  %29 = getelementptr i8, ptr %22, i64 24
  %30 = load double, ptr %29, align 8, !tbaa !64
  %31 = fneg double %30
  %32 = getelementptr i8, ptr %22, i64 32
  %33 = load double, ptr %32, align 8, !tbaa !62
  %34 = getelementptr i8, ptr %22, i64 40
  %35 = load double, ptr %34, align 8, !tbaa !64
  %36 = fneg double %35
  tail call void @cairo_curve_to(ptr noundef %8, double noundef %23, double noundef %26, double noundef %28, double noundef %31, double noundef %33, double noundef %36) #20
  %37 = add i64 %.039, 3
  %38 = icmp ult i64 %37, %2
  br i1 %38, label %.lr.ph, label %._crit_edge, !llvm.loop !76

39:                                               ; preds = %._crit_edge
  tail call fastcc void @cairo_gradient_fill(ptr noundef %8, ptr noundef %6, i32 noundef %3, ptr noundef nonnull %1, i64 noundef %2)
  br label %50

40:                                               ; preds = %._crit_edge
  %.not = icmp eq i32 %3, 0
  br i1 %.not, label %50, label %41

41:                                               ; preds = %40
  %42 = getelementptr inbounds nuw i8, ptr %6, i64 72
  %43 = load double, ptr %42, align 8, !tbaa !38
  %44 = getelementptr inbounds nuw i8, ptr %6, i64 80
  %45 = load double, ptr %44, align 8, !tbaa !38
  %46 = getelementptr inbounds nuw i8, ptr %6, i64 88
  %47 = load double, ptr %46, align 8, !tbaa !38
  %48 = getelementptr inbounds nuw i8, ptr %6, i64 96
  %49 = load double, ptr %48, align 8, !tbaa !38
  tail call void @cairo_set_source_rgba(ptr noundef %8, double noundef %43, double noundef %45, double noundef %47, double noundef %49) #20
  tail call void @cairo_fill_preserve(ptr noundef %8) #20
  br label %50

50:                                               ; preds = %40, %41, %39
  %51 = getelementptr inbounds nuw i8, ptr %6, i64 32
  %52 = load double, ptr %51, align 8, !tbaa !38
  %53 = getelementptr inbounds nuw i8, ptr %6, i64 40
  %54 = load double, ptr %53, align 8, !tbaa !38
  %55 = getelementptr inbounds nuw i8, ptr %6, i64 48
  %56 = load double, ptr %55, align 8, !tbaa !38
  %57 = getelementptr inbounds nuw i8, ptr %6, i64 56
  %58 = load double, ptr %57, align 8, !tbaa !38
  tail call void @cairo_set_source_rgba(ptr noundef %8, double noundef %52, double noundef %54, double noundef %56, double noundef %58) #20
  tail call void @cairo_stroke(ptr noundef %8) #20
  ret void
}